target datalayout = "e-m:e-p270:32:32-p271:32:32-p272:64:64-i64:64-i128:128-f80:128-n8:16:32:64-S128"
target triple = "x86_64-pc-linux-gnu"

%struct._psqlSettings = type { ptr, i32, ptr, i8, ptr, ptr, %struct.printQueryOpt, ptr, ptr, ptr, i8, i8, i32, i32, ptr, ptr, i8, [4 x ptr], i8, i32, ptr, i8, i32, ptr, ptr, i64, i64, i8, ptr, ptr, ptr, i8, i8, i8, i8, i8, i8, i8, i32, i32, i32, i32, i32, i32, i32, i32, ptr, ptr, ptr, i32, i8, i32 }
%struct.printQueryOpt = type { %struct.printTableOpt, ptr, ptr, ptr, i8, ptr, i32 }
%struct.printTableOpt = type { i32, i16, i32, i32, i16, i16, i32, i8, i8, i8, i8, i64, ptr, %struct.separator, %struct.separator, [2 x i8], i8, ptr, i32, i32, i32, i32, i32, i32 }
%struct.separator = type { ptr, i8 }
%struct.PQExpBufferData = type { ptr, i64, i64 }

@pset = external global %struct._psqlSettings, align 8
@.str.1 = private unnamed_addr constant [7 x i8] c"Schema\00", align 1
@.str.2 = private unnamed_addr constant [5 x i8] c"Name\00", align 1
@.str.6 = private unnamed_addr constant [12 x i8] c"Description\00", align 1
@.str.8 = private unnamed_addr constant [81 x i8] c"      AND n.nspname <> 'pg_catalog'\0A      AND n.nspname <> 'information_schema'\0A\00", align 1
@.str.9 = private unnamed_addr constant [10 x i8] c"n.nspname\00", align 1
@.str.61 = private unnamed_addr constant [4 x i8] c"yes\00", align 1
@.str.62 = private unnamed_addr constant [3 x i8] c"no\00", align 1
@.str.111 = private unnamed_addr constant [15 x i8] c"ORDER BY 1, 2;\00", align 1
@.str.133 = private unnamed_addr constant [19 x i8] c"  'libc' AS \22%s\22,\0A\00", align 1
@.str.135 = private unnamed_addr constant [8 x i8] c"Collate\00", align 1
@.str.136 = private unnamed_addr constant [6 x i8] c"Ctype\00", align 1
@.str.138 = private unnamed_addr constant [7 x i8] c"Locale\00", align 1
@.str.142 = private unnamed_addr constant [10 x i8] c"ICU Rules\00", align 1
@listCollations.translate_columns = internal constant [9 x i8] c"\00\00\00\00\00\00\00\01\00", align 1
@.str.419 = private unnamed_addr constant [51 x i8] c"SELECT\0A  n.nspname AS \22%s\22,\0A  c.collname AS \22%s\22,\0A\00", align 1
@.str.420 = private unnamed_addr constant [125 x i8] c"  CASE c.collprovider WHEN 'd' THEN 'default' WHEN 'b' THEN 'builtin' WHEN 'c' THEN 'libc' WHEN 'i' THEN 'icu' END AS \22%s\22,\0A\00", align 1
@.str.421 = private unnamed_addr constant [9 x i8] c"Provider\00", align 1
@.str.422 = private unnamed_addr constant [49 x i8] c"  c.collcollate AS \22%s\22,\0A  c.collctype AS \22%s\22,\0A\00", align 1
@.str.423 = private unnamed_addr constant [25 x i8] c"  c.colllocale AS \22%s\22,\0A\00", align 1
@.str.424 = private unnamed_addr constant [28 x i8] c"  c.colliculocale AS \22%s\22,\0A\00", align 1
@.str.425 = private unnamed_addr constant [26 x i8] c"  c.collcollate AS \22%s\22,\0A\00", align 1
@.str.426 = private unnamed_addr constant [27 x i8] c"  c.collicurules AS \22%s\22,\0A\00", align 1
@.str.427 = private unnamed_addr constant [17 x i8] c"  NULL AS \22%s\22,\0A\00", align 1
@.str.428 = private unnamed_addr constant [66 x i8] c"  CASE WHEN c.collisdeterministic THEN '%s' ELSE '%s' END AS \22%s\22\00", align 1
@.str.429 = private unnamed_addr constant [15 x i8] c"Deterministic?\00", align 1
@.str.430 = private unnamed_addr constant [15 x i8] c"  '%s' AS \22%s\22\00", align 1
@.str.431 = private unnamed_addr constant [62 x i8] c",\0A  pg_catalog.obj_description(c.oid, 'pg_collation') AS \22%s\22\00", align 1
@.str.432 = private unnamed_addr constant [90 x i8] c"\0AFROM pg_catalog.pg_collation c, pg_catalog.pg_namespace n\0AWHERE n.oid = c.collnamespace\0A\00", align 1
@.str.433 = private unnamed_addr constant [100 x i8] c"      AND c.collencoding IN (-1, pg_catalog.pg_char_to_encoding(pg_catalog.getdatabaseencoding()))\0A\00", align 1
@.str.434 = private unnamed_addr constant [11 x i8] c"c.collname\00", align 1
@.str.435 = private unnamed_addr constant [42 x i8] c"pg_catalog.pg_collation_is_visible(c.oid)\00", align 1
@.str.436 = private unnamed_addr constant [19 x i8] c"List of collations\00", align 1

; Function Attrs: nounwind uwtable
define dso_local zeroext i1 @listCollations(ptr noundef %0, i1 noundef zeroext %1, i1 noundef zeroext %2) #0 {
  %4 = alloca i1, align 1
  %5 = alloca ptr, align 8
  %6 = alloca i8, align 1
  %7 = alloca i8, align 1
  %8 = alloca %struct.PQExpBufferData, align 8
  %9 = alloca ptr, align 8
  %10 = alloca %struct.printQueryOpt, align 8
  %11 = alloca i32, align 4
  store ptr %0, ptr %5, align 8
  %12 = zext i1 %1 to i8
  store i8 %12, ptr %6, align 1
  %13 = zext i1 %2 to i8
  store i8 %13, ptr %7, align 1
  call void @llvm.lifetime.start.p0(i64 24, ptr %8) #8
  call void @llvm.lifetime.start.p0(i64 8, ptr %9) #8
  call void @llvm.lifetime.start.p0(i64 168, ptr %10) #8
  call void @llvm.memcpy.p0.p0.i64(ptr align 8 %10, ptr align 8 getelementptr inbounds nuw (%struct._psqlSettings, ptr @pset, i32 0, i32 6), i64 168, i1 false)
  call void @initPQExpBuffer(ptr noundef %8)
  call void (ptr, ptr, ...) @printfPQExpBuffer(ptr noundef %8, ptr noundef @.str.419, ptr noundef @.str.1, ptr noundef @.str.2)
  %14 = load i32, ptr getelementptr inbounds nuw (%struct._psqlSettings, ptr @pset, i32 0, i32 22), align 4
  %15 = icmp sge i32 %14, 100000
  br i1 %15, label %16, label %17

16:                                               ; preds = %3
  call void (ptr, ptr, ...) @appendPQExpBuffer(ptr noundef %8, ptr noundef @.str.420, ptr noundef @.str.421)
  br label %18

17:                                               ; preds = %3
  call void (ptr, ptr, ...) @appendPQExpBuffer(ptr noundef %8, ptr noundef @.str.133, ptr noundef @.str.421)
  br label %18

18:                                               ; preds = %17, %16
  call void (ptr, ptr, ...) @appendPQExpBuffer(ptr noundef %8, ptr noundef @.str.422, ptr noundef @.str.135, ptr noundef @.str.136)
  %19 = load i32, ptr getelementptr inbounds nuw (%struct._psqlSettings, ptr @pset, i32 0, i32 22), align 4
  %20 = icmp sge i32 %19, 170000
  br i1 %20, label %21, label %22

21:                                               ; preds = %18
  call void (ptr, ptr, ...) @appendPQExpBuffer(ptr noundef %8, ptr noundef @.str.423, ptr noundef @.str.138)
  br label %28

22:                                               ; preds = %18
  %23 = load i32, ptr getelementptr inbounds nuw (%struct._psqlSettings, ptr @pset, i32 0, i32 22), align 4
  %24 = icmp sge i32 %23, 150000
  br i1 %24, label %25, label %26

25:                                               ; preds = %22
  call void (ptr, ptr, ...) @appendPQExpBuffer(ptr noundef %8, ptr noundef @.str.424, ptr noundef @.str.138)
  br label %27

26:                                               ; preds = %22
  call void (ptr, ptr, ...) @appendPQExpBuffer(ptr noundef %8, ptr noundef @.str.425, ptr noundef @.str.138)
  br label %27

27:                                               ; preds = %26, %25
  br label %28

28:                                               ; preds = %27, %21
  %29 = load i32, ptr getelementptr inbounds nuw (%struct._psqlSettings, ptr @pset, i32 0, i32 22), align 4
  %30 = icmp sge i32 %29, 160000
  br i1 %30, label %31, label %32

31:                                               ; preds = %28
  call void (ptr, ptr, ...) @appendPQExpBuffer(ptr noundef %8, ptr noundef @.str.426, ptr noundef @.str.142)
  br label %33

32:                                               ; preds = %28
  call void (ptr, ptr, ...) @appendPQExpBuffer(ptr noundef %8, ptr noundef @.str.427, ptr noundef @.str.142)
  br label %33

33:                                               ; preds = %32, %31
  %34 = load i32, ptr getelementptr inbounds nuw (%struct._psqlSettings, ptr @pset, i32 0, i32 22), align 4
  %35 = icmp sge i32 %34, 120000
  br i1 %35, label %36, label %37

36:                                               ; preds = %33
  call void (ptr, ptr, ...) @appendPQExpBuffer(ptr noundef %8, ptr noundef @.str.428, ptr noundef @.str.61, ptr noundef @.str.62, ptr noundef @.str.429)
  br label %38

37:                                               ; preds = %33
  call void (ptr, ptr, ...) @appendPQExpBuffer(ptr noundef %8, ptr noundef @.str.430, ptr noundef @.str.61, ptr noundef @.str.429)
  br label %38

38:                                               ; preds = %37, %36
  %39 = load i8, ptr %6, align 1, !range !4, !noundef !5
  %40 = trunc i8 %39 to i1
  br i1 %40, label %41, label %42

41:                                               ; preds = %38
  call void (ptr, ptr, ...) @appendPQExpBuffer(ptr noundef %8, ptr noundef @.str.431, ptr noundef @.str.6)
  br label %42

42:                                               ; preds = %41, %38
  call void @appendPQExpBufferStr(ptr noundef %8, ptr noundef @.str.432)
  %43 = load i8, ptr %7, align 1, !range !4, !noundef !5
  %44 = trunc i8 %43 to i1
  br i1 %44, label %49, label %45

45:                                               ; preds = %42
  %46 = load ptr, ptr %5, align 8
  %47 = icmp ne ptr %46, null
  br i1 %47, label %49, label %48

48:                                               ; preds = %45
  call void @appendPQExpBufferStr(ptr noundef %8, ptr noundef @.str.8)
  br label %49

49:                                               ; preds = %48, %45, %42
  call void @appendPQExpBufferStr(ptr noundef %8, ptr noundef @.str.433)
  %50 = load ptr, ptr %5, align 8
  %51 = call zeroext i1 @validateSQLNamePattern(ptr noundef %8, ptr noundef %50, i1 noundef zeroext true, i1 noundef zeroext false, ptr noundef @.str.9, ptr noundef @.str.434, ptr noundef null, ptr noundef @.str.435, ptr noundef null, i32 noundef 3)
  br i1 %51, label %53, label %52

52:                                               ; preds = %49
  call void @termPQExpBuffer(ptr noundef %8)
  store i1 false, ptr %4, align 1
  store i32 1, ptr %11, align 4
  br label %69

53:                                               ; preds = %49
  call void @appendPQExpBufferStr(ptr noundef %8, ptr noundef @.str.111)
  %54 = getelementptr inbounds nuw %struct.PQExpBufferData, ptr %8, i32 0, i32 0
  %55 = load ptr, ptr %54, align 8
  %56 = call ptr @PSQLexec(ptr noundef %55)
  store ptr %56, ptr %9, align 8
  call void @termPQExpBuffer(ptr noundef %8)
  %57 = load ptr, ptr %9, align 8
  %58 = icmp ne ptr %57, null
  br i1 %58, label %60, label %59

59:                                               ; preds = %53
  store i1 false, ptr %4, align 1
  store i32 1, ptr %11, align 4
  br label %69

60:                                               ; preds = %53
  %61 = getelementptr inbounds nuw %struct.printQueryOpt, ptr %10, i32 0, i32 2
  store ptr @.str.436, ptr %61, align 8
  %62 = getelementptr inbounds nuw %struct.printQueryOpt, ptr %10, i32 0, i32 4
  store i8 1, ptr %62, align 8
  %63 = getelementptr inbounds nuw %struct.printQueryOpt, ptr %10, i32 0, i32 5
  store ptr @listCollations.translate_columns, ptr %63, align 8
  %64 = getelementptr inbounds nuw %struct.printQueryOpt, ptr %10, i32 0, i32 6
  store i32 9, ptr %64, align 8
  %65 = load ptr, ptr %9, align 8
  %66 = load ptr, ptr getelementptr inbounds nuw (%struct._psqlSettings, ptr @pset, i32 0, i32 2), align 8
  %67 = load ptr, ptr getelementptr inbounds nuw (%struct._psqlSettings, ptr @pset, i32 0, i32 28), align 8
  call void @printQuery(ptr noundef %65, ptr noundef %10, ptr noundef %66, i1 noundef zeroext false, ptr noundef %67)
  %68 = load ptr, ptr %9, align 8
  call void @PQclear(ptr noundef %68)
  store i1 true, ptr %4, align 1
  store i32 1, ptr %11, align 4
  br label %69

69:                                               ; preds = %60, %59, %52
  call void @llvm.lifetime.end.p0(i64 168, ptr %10) #8
  call void @llvm.lifetime.end.p0(i64 8, ptr %9) #8
  call void @llvm.lifetime.end.p0(i64 24, ptr %8) #8
  %70 = load i1, ptr %4, align 1
  ret i1 %70
}