; Function Attrs: nounwind uwtable
define dso_local noundef zeroext i1 @listCollations(ptr noundef %0, i1 noundef zeroext %1, i1 noundef zeroext %2) local_unnamed_addr #0 {
  %4 = alloca %struct.PQExpBufferData, align 8
  %5 = alloca %struct.printQueryOpt, align 8
  call void @llvm.lifetime.start.p0(i64 24, ptr nonnull %4) #8
  call void @llvm.lifetime.start.p0(i64 168, ptr nonnull %5) #8
  call void @llvm.memcpy.p0.p0.i64(ptr noundef nonnull align 8 dereferenceable(168) %5, ptr noundef nonnull align 8 dereferenceable(168) getelementptr inbounds nuw (i8, ptr @pset, i64 48), i64 168, i1 false)
  call void @initPQExpBuffer(ptr noundef nonnull %4) #8
  call void (ptr, ptr, ...) @printfPQExpBuffer(ptr noundef nonnull %4, ptr noundef nonnull @.str.419, ptr noundef nonnull @.str.1, ptr noundef nonnull @.str.2) #8
  %6 = load i32, ptr getelementptr inbounds nuw (i8, ptr @pset, i64 332), align 4
  %7 = icmp sgt i32 %6, 99999
  %.str.420..str.133 = select i1 %7, ptr @.str.420, ptr @.str.133
  call void (ptr, ptr, ...) @appendPQExpBuffer(ptr noundef nonnull %4, ptr noundef nonnull %.str.420..str.133, ptr noundef nonnull @.str.421) #8
  call void (ptr, ptr, ...) @appendPQExpBuffer(ptr noundef nonnull %4, ptr noundef nonnull @.str.422, ptr noundef nonnull @.str.135, ptr noundef nonnull @.str.136) #8
  %8 = load i32, ptr getelementptr inbounds nuw (i8, ptr @pset, i64 332), align 4
  %9 = icmp sgt i32 %8, 169999
  %10 = icmp sgt i32 %8, 149999
  %.str.424..str.425 = select i1 %10, ptr @.str.424, ptr @.str.425
  %.str.424.sink = select i1 %9, ptr @.str.423, ptr %.str.424..str.425
  call void (ptr, ptr, ...) @appendPQExpBuffer(ptr noundef nonnull %4, ptr noundef nonnull %.str.424.sink, ptr noundef nonnull @.str.138) #8
  %11 = load i32, ptr getelementptr inbounds nuw (i8, ptr @pset, i64 332), align 4
  %12 = icmp sgt i32 %11, 159999
  %.str.427.sink = select i1 %12, ptr @.str.426, ptr @.str.427
  call void (ptr, ptr, ...) @appendPQExpBuffer(ptr noundef nonnull %4, ptr noundef nonnull %.str.427.sink, ptr noundef nonnull @.str.142) #8
  %13 = load i32, ptr getelementptr inbounds nuw (i8, ptr @pset, i64 332), align 4
  %14 = icmp sgt i32 %13, 119999
  br i1 %14, label %15, label %16

15:                                               ; preds = %3
  call void (ptr, ptr, ...) @appendPQExpBuffer(ptr noundef nonnull %4, ptr noundef nonnull @.str.428, ptr noundef nonnull @.str.61, ptr noundef nonnull @.str.62, ptr noundef nonnull @.str.429) #8
  br label %17

16:                                               ; preds = %3
  call void (ptr, ptr, ...) @appendPQExpBuffer(ptr noundef nonnull %4, ptr noundef nonnull @.str.430, ptr noundef nonnull @.str.61, ptr noundef nonnull @.str.429) #8
  br label %17

17:                                               ; preds = %16, %15
  br i1 %1, label %18, label %19

18:                                               ; preds = %17
  call void (ptr, ptr, ...) @appendPQExpBuffer(ptr noundef nonnull %4, ptr noundef nonnull @.str.431, ptr noundef nonnull @.str.6) #8
  br label %19

19:                                               ; preds = %18, %17
  call void @appendPQExpBufferStr(ptr noundef nonnull %4, ptr noundef nonnull @.str.432) #8
  %20 = icmp ne ptr %0, null
  %or.cond = or i1 %20, %2
  br i1 %or.cond, label %22, label %21

21:                                               ; preds = %19
  call void @appendPQExpBufferStr(ptr noundef nonnull %4, ptr noundef nonnull @.str.8) #8
  br label %22

22:                                               ; preds = %21, %19
  call void @appendPQExpBufferStr(ptr noundef nonnull %4, ptr noundef nonnull @.str.433) #8
  %23 = call fastcc zeroext i1 @validateSQLNamePattern(ptr noundef %4, ptr noundef %0, i1 noundef zeroext true, i1 noundef zeroext false, ptr noundef nonnull @.str.9, ptr noundef nonnull @.str.434, ptr noundef null, ptr noundef nonnull @.str.435, ptr noundef null, i32 noundef 3)
  br i1 %23, label %25, label %24

24:                                               ; preds = %22
  call void @termPQExpBuffer(ptr noundef nonnull %4) #8
  br label %35

25:                                               ; preds = %22
  call void @appendPQExpBufferStr(ptr noundef nonnull %4, ptr noundef nonnull @.str.111) #8
  %26 = load ptr, ptr %4, align 8
  %27 = call ptr @PSQLexec(ptr noundef %26) #8
  call void @termPQExpBuffer(ptr noundef nonnull %4) #8
  %.not = icmp eq ptr %27, null
  br i1 %.not, label %35, label %28

28:                                               ; preds = %25
  %29 = getelementptr inbounds nuw i8, ptr %5, i64 128
  store ptr @.str.436, ptr %29, align 8
  %30 = getelementptr inbounds nuw i8, ptr %5, i64 144
  store i8 1, ptr %30, align 8
  %31 = getelementptr inbounds nuw i8, ptr %5, i64 152
  store ptr @listCollations.translate_columns, ptr %31, align 8
  %32 = getelementptr inbounds nuw i8, ptr %5, i64 160
  store i32 9, ptr %32, align 8
  %33 = load ptr, ptr getelementptr inbounds nuw (i8, ptr @pset, i64 16), align 8
  %34 = load ptr, ptr getelementptr inbounds nuw (i8, ptr @pset, i64 376), align 8
  call void @printQuery(ptr noundef nonnull %27, ptr noundef nonnull %5, ptr noundef %33, i1 noundef zeroext false, ptr noundef %34) #8
  call void @PQclear(ptr noundef nonnull %27) #8
  br label %35

35:                                               ; preds = %25, %28, %24
  %.0 = phi i1 [ true, %28 ], [ false, %24 ], [ false, %25 ]
  call void @llvm.lifetime.end.p0(i64 168, ptr nonnull %5) #8
  call void @llvm.lifetime.end.p0(i64 24, ptr nonnull %4) #8
  ret i1 %.0
}